Certificate:
    Data:
        Version: 3 (0x2)
        Serial Number: 29 (0x1d)
        Signature Algorithm: sha256WithRSAEncryption
        Issuer: C=US, ST=CA, L=Foster City, O=E2open Inc, OU=DCOps
        Validity
            Not Before: Sep  6 08:07:18 2023 GMT
            Not After : Sep  3 08:07:18 2033 GMT
        Subject: C=FR, ST=CDG, L=Paris, O=E2open Inc, OU=DCOps, CN=ldap1.cdg.prod.e2open.com/emailAddress=dcops@e2open.com
        Subject Public Key Info:
            Public Key Algorithm: rsaEncryption
                RSA Public-Key: (2048 bit)
                Modulus:
                    00:a2:40:ff:a8:63:c0:a8:af:4b:8b:ea:28:d1:93:
                    42:f5:7b:8f:cd:b1:ee:b7:97:ed:1f:a9:9a:70:dc:
                    41:80:27:7e:11:0d:68:88:c5:88:87:8b:51:ff:9d:
                    2b:2a:16:35:a8:97:dd:e9:76:4a:40:88:ce:9f:af:
                    fe:a0:b6:0c:7d:b1:1b:2e:63:9e:b2:ec:5c:b6:67:
                    ee:be:d5:2e:84:6a:75:2c:34:47:40:67:6c:4b:e0:
                    4f:ff:e5:76:39:f6:2c:8b:6f:41:48:1e:87:6a:b4:
                    64:0d:d4:65:60:6f:13:de:36:ed:2c:6c:73:14:e9:
                    83:7c:a4:fe:78:f7:02:44:20:a5:fb:5d:87:34:2a:
                    32:4e:df:04:ba:31:0f:da:aa:db:3b:47:d8:84:5b:
                    b3:70:7c:eb:1d:f4:5d:be:ed:3f:0f:c0:cf:60:e9:
                    33:e7:e1:6b:19:e0:da:b4:17:e2:a5:03:c7:29:03:
                    38:0f:3e:28:eb:28:31:54:39:74:6e:e2:1c:75:34:
                    6d:03:8d:c9:cb:ce:f3:99:dd:89:5d:ff:c0:c9:b8:
                    68:ac:99:c6:7b:2f:0e:93:ba:9f:4d:cd:fa:61:e7:
                    2d:1a:aa:94:8c:9a:3a:fe:2c:6b:f5:c3:16:d5:fc:
                    eb:34:22:b5:3d:4a:32:dc:b9:dc:c2:15:84:aa:1c:
                    67:27
                Exponent: 65537 (0x10001)
        X509v3 extensions:
            X509v3 Basic Constraints:
                CA:FALSE
            X509v3 Key Usage:
                Digital Signature, Non Repudiation, Key Encipherment
            X509v3 Subject Alternative Name:
                DNS:ldap1.cdg.prod.e2open.com, DNS:ldap2.cdg.prod.e2open.com
    Signature Algorithm: sha256WithRSAEncryption
         5b:3a:96:9e:4d:3a:a3:29:30:fc:7e:ad:b1:b6:9d:26:bd:15:
         2e:1b:3d:b8:b7:d0:17:29:a1:5a:f1:9a:fc:d3:4b:31:96:01:
         31:03:3e:c1:32:e4:55:9e:81:61:14:1f:11:4e:b3:06:51:73:
         d7:17:92:e6:4d:db:a9:ee:37:4c:0d:05:a9:cd:71:83:77:ee:
         1d:27:c5:e7:b3:30:b7:75:bd:92:af:db:1a:6c:3a:aa:97:67:
         08:6d:be:e8:98:22:29:6d:f9:a3:4b:3f:14:2c:2f:8b:ce:5e:
         8c:8c:5d:c6:6a:f9:6f:2b:71:78:16:26:9b:ac:31:e0:14:28:
         83:3c:71:52:fd:6a:41:89:c6:54:77:58:93:f8:f8:d5:06:b6:
         30:76:cb:43:6d:6e:2b:9f:0e:56:b7:d0:60:2c:67:38:8c:e3:
         f5:62:b9:80:f3:61:2e:93:99:9e:ff:96:60:86:46:18:0e:df:
         e8:57:60:a8:62:35:94:c1:a6:53:4d:d4:d8:58:91:67:68:7d:
         fe:12:70:60:ad:9a:a9:d6:71:e5:cb:95:21:3a:8e:8f:44:80:
         ed:9e:10:42:71:ff:0e:6a:aa:a0:f0:a6:7b:34:eb:9a:fe:d8:
         eb:f3:86:3f:d5:9a:f8:50:9f:47:c0:7c:ac:63:7c:b0:be:ee:
         7e:66:2e:4b
-----BEGIN CERTIFICATE-----
MIIDwTCCAqmgAwIBAgIBHTANBgkqhkiG9w0BAQsFADBVMQswCQYDVQQGEwJVUzEL
MAkGA1UECAwCQ0ExFDASBgNVBAcMC0Zvc3RlciBDaXR5MRMwEQYDVQQKDApFMm9w
ZW4gSW5jMQ4wDAYDVQQLDAVEQ09wczAeFw0yMzA5MDYwODA3MThaFw0zMzA5MDMw
ODA3MThaMIGVMQswCQYDVQQGEwJGUjEMMAoGA1UECAwDQ0RHMQ4wDAYDVQQHDAVQ
YXJpczETMBEGA1UECgwKRTJvcGVuIEluYzEOMAwGA1UECwwFRENPcHMxIjAgBgNV
BAMMGWxkYXAxLmNkZy5wcm9kLmUyb3Blbi5jb20xHzAdBgkqhkiG9w0BCQEWEGRj
b3BzQGUyb3Blbi5jb20wggEiMA0GCSqGSIb3DQEBAQUAA4IBDwAwggEKAoIBAQCi
QP+oY8Cor0uL6ijRk0L1e4/Nse63l+0fqZpw3EGAJ34RDWiIxYiHi1H/nSsqFjWo
l93pdkpAiM6fr/6gtgx9sRsuY56y7Fy2Z+6+1S6EanUsNEdAZ2xL4E//5XY59iyL
b0FIHodqtGQN1GVgbxPeNu0sbHMU6YN8pP549wJEIKX7XYc0KjJO3wS6MQ/aqts7
R9iEW7NwfOsd9F2+7T8PwM9g6TPn4WsZ4Nq0F+KlA8cpAzgPPijrKDFUOXRu4hx1
NG0DjcnLzvOZ3Yld/8DJuGismcZ7Lw6Tup9Nzfph5y0aqpSMmjr+LGv1wxbV/Os0
IrU9SjLcudzCFYSqHGcnAgMBAAGjWzBZMAkGA1UdEwQCMAAwCwYDVR0PBAQDAgXg
MD8GA1UdEQQ4MDaCGWxkYXAxLmNkZy5wcm9kLmUyb3Blbi5jb22CGWxkYXAyLmNk
Zy5wcm9kLmUyb3Blbi5jb20wDQYJKoZIhvcNAQELBQADggEBAFs6lp5NOqMpMPx+
rbG2nSa9FS4bPbi30BcpoVrxmvzTSzGWATEDPsEy5FWegWEUHxFOswZRc9cXkuZN
26nuN0wNBanNcYN37h0nxeezMLd1vZKv2xpsOqqXZwhtvuiYIilt+aNLPxQsL4vO
XoyMXcZq+W8rcXgWJpusMeAUKIM8cVL9akGJxlR3WJP4+NUGtjB2y0NtbiufDla3
0GAsZziM4/ViuYDzYS6TmZ7/lmCGRhgO3+hXYKhiNZTBplNN1NhYkWdoff4ScGCt
mqnWceXLlSE6jo9EgO2eEEJx/w5qqqDwpns065r+2Ovzhj/VmvhQn0fAfKxjfLC+
7n5mLks=
-----END CERTIFICATE-----
